#include <math.h>
#include <stdio.h>
#include <stdlib.h>
#include <string.h>

int main(){
    int n,i,k,l;
    scanf("%d",&n);
    char jj[256];
    for(i=0;i<n;i++){
        scanf("%s",jj);
        l=strlen(jj);
        for(k=0;k<l;k++){
            if(jj[k]=='A'){
                jj[k]='T';
                continue;
            }
            if(jj[k]=='T'){
                jj[k]='A';
                continue;
            }if(jj[k]=='C'){
                jj[k]='G';
                continue;
            }
            if(jj[k]=='G'){
                jj[k]='C';
                continue;
            }
        }
        printf("%s\n",jj);
    }
    
    
return 0;
}


